; Function Attrs: nounwind uwtable
define internal fastcc noundef ptr @_readReindexStmt() unnamed_addr #0 {
  %1 = alloca i32, align 4
  %2 = tail call noundef ptr @palloc0(i64 noundef 32) #10
  store i32 247, ptr %2, align 4
  call void @llvm.lifetime.start.p0(i64 4, ptr nonnull %1) #10
  %3 = call ptr @pg_strtok(ptr noundef nonnull %1) #10
  %4 = call ptr @pg_strtok(ptr noundef nonnull %1) #10
  %5 = call i64 @strtol(ptr noundef nonnull captures(none) %4, ptr noundef null, i32 noundef 10) #10
  %6 = trunc i64 %5 to i32
  %7 = getelementptr inbounds nuw i8, ptr %2, i64 4
  store i32 %6, ptr %7, align 4
  %8 = call ptr @pg_strtok(ptr noundef nonnull %1) #10
  %9 = call ptr @nodeRead(ptr noundef null, i32 noundef 0) #10
  %10 = getelementptr inbounds nuw i8, ptr %2, i64 8
  store ptr %9, ptr %10, align 8
  %11 = call ptr @pg_strtok(ptr noundef nonnull %1) #10
  %12 = call ptr @pg_strtok(ptr noundef nonnull %1) #10
  %13 = load i32, ptr %1, align 4
  switch i32 %13, label %23 [
    i32 0, label %nullable_string.exit
    i32 2, label %14
  ]

14:                                               ; preds = %0
  %15 = load i8, ptr %12, align 1
  %16 = icmp eq i8 %15, 34
  br i1 %16, label %17, label %23

17:                                               ; preds = %14
  %18 = getelementptr inbounds nuw i8, ptr %12, i64 1
  %19 = load i8, ptr %18, align 1
  %20 = icmp eq i8 %19, 34
  br i1 %20, label %21, label %23

21:                                               ; preds = %17
  %22 = call ptr @pstrdup(ptr noundef nonnull @.str.326) #10
  br label %nullable_string.exit

23:                                               ; preds = %17, %14, %0
  %24 = call ptr @debackslash(ptr noundef %12, i32 noundef %13) #10
  br label %nullable_string.exit

nullable_string.exit:                             ; preds = %0, %21, %23
  %.0.i = phi ptr [ %22, %21 ], [ %24, %23 ], [ null, %0 ]
  %25 = getelementptr inbounds nuw i8, ptr %2, i64 16
  store ptr %.0.i, ptr %25, align 8
  %26 = call ptr @pg_strtok(ptr noundef nonnull %1) #10
  %27 = call ptr @nodeRead(ptr noundef null, i32 noundef 0) #10
  %28 = getelementptr inbounds nuw i8, ptr %2, i64 24
  store ptr %27, ptr %28, align 8
  call void @llvm.lifetime.end.p0(i64 4, ptr nonnull %1) #10
  ret ptr %2
}